; Function Attrs: mustprogress uwtable
define void @_ZN8LightGBM11Application12ConvertModelEv(ptr noundef nonnull align 8 dereferenceable(1720) %0) local_unnamed_addr #3 align 2 {
  %2 = getelementptr inbounds nuw i8, ptr %0, i64 1704
  %3 = getelementptr inbounds nuw i8, ptr %0, i64 72
  %4 = getelementptr inbounds nuw i8, ptr %0, i64 768
  %5 = load ptr, ptr %4, align 8, !tbaa !87
  %6 = tail call noundef ptr @_ZN8LightGBM8Boosting14CreateBoostingERKNSt7__cxx1112basic_stringIcSt11char_traitsIcESaIcEEEPKc(ptr noundef nonnull align 8 dereferenceable(32) %3, ptr noundef %5)
  %7 = load ptr, ptr %2, align 8, !tbaa !91
  store ptr %6, ptr %2, align 8, !tbaa !91
  %.not.i.i = icmp eq ptr %7, null
  br i1 %.not.i.i, label %_ZNSt10unique_ptrIN8LightGBM8BoostingESt14default_deleteIS1_EE5resetEPS1_.exit, label %_ZNKSt14default_deleteIN8LightGBM8BoostingEEclEPS1_.exit.i.i

_ZNKSt14default_deleteIN8LightGBM8BoostingEEclEPS1_.exit.i.i: ; preds = %1
  %8 = load ptr, ptr %7, align 8, !tbaa !89
  %9 = getelementptr inbounds nuw i8, ptr %8, i64 8
  %10 = load ptr, ptr %9, align 8
  tail call void %10(ptr noundef nonnull align 8 dereferenceable(8) %7) #23
  %.pre = load ptr, ptr %2, align 8, !tbaa !91
  br label %_ZNSt10unique_ptrIN8LightGBM8BoostingESt14default_deleteIS1_EE5resetEPS1_.exit

_ZNSt10unique_ptrIN8LightGBM8BoostingESt14default_deleteIS1_EE5resetEPS1_.exit: ; preds = %1, %_ZNKSt14default_deleteIN8LightGBM8BoostingEEclEPS1_.exit.i.i
  %11 = phi ptr [ %6, %1 ], [ %.pre, %_ZNKSt14default_deleteIN8LightGBM8BoostingEEclEPS1_.exit.i.i ]
  %12 = getelementptr inbounds nuw i8, ptr %0, i64 1232
  %13 = load ptr, ptr %12, align 8, !tbaa !87
  %14 = load ptr, ptr %11, align 8, !tbaa !89
  %15 = getelementptr inbounds nuw i8, ptr %14, i64 224
  %16 = load ptr, ptr %15, align 8
  %17 = tail call noundef zeroext i1 %16(ptr noundef nonnull align 8 dereferenceable(8) %11, i32 noundef -1, ptr noundef %13)
  ret void
}